target datalayout = "e-m:e-p270:32:32-p271:32:32-p272:64:64-i64:64-i128:128-f80:128-n8:16:32:64-S128"
target triple = "x86_64-pc-linux-gnu"

@.str.127 = private unnamed_addr constant [5 x i8] c":=.[\00", align 1

; Function Attrs: inlinehint nounwind uwtable
define internal i64 @hwloc_calc_parse_level_size(ptr noundef %0) #4 {
  %2 = alloca i64, align 8
  %3 = alloca ptr, align 8
  %4 = alloca i64, align 8
  %5 = alloca ptr, align 8
  %6 = alloca i32, align 4
  store ptr %0, ptr %3, align 8, !tbaa !4
  call void @llvm.lifetime.start.p0(i64 8, ptr %4) #11
  call void @llvm.lifetime.start.p0(i64 8, ptr %5) #11
  %7 = load ptr, ptr %3, align 8, !tbaa !4
  %8 = call i64 @strcspn(ptr noundef %7, ptr noundef @.str.127) #12
  store i64 %8, ptr %4, align 8, !tbaa !21
  %9 = load ptr, ptr %3, align 8, !tbaa !4
  %10 = load i64, ptr %4, align 8, !tbaa !21
  %11 = getelementptr inbounds nuw i8, ptr %9, i64 %10
  %12 = load i8, ptr %11, align 1, !tbaa !15
  %13 = sext i8 %12 to i32
  %14 = icmp ne i32 %13, 91
  br i1 %14, label %15, label %17

15:                                               ; preds = %1
  %16 = load i64, ptr %4, align 8, !tbaa !21
  store i64 %16, ptr %2, align 8
  store i32 1, ptr %6, align 4
  br label %32

17:                                               ; preds = %1
  %18 = load ptr, ptr %3, align 8, !tbaa !4
  %19 = load i64, ptr %4, align 8, !tbaa !21
  %20 = getelementptr inbounds nuw i8, ptr %18, i64 %19
  %21 = call ptr @strchr(ptr noundef %20, i32 noundef 93) #12
  store ptr %21, ptr %5, align 8, !tbaa !4
  %22 = load ptr, ptr %5, align 8, !tbaa !4
  %23 = icmp ne ptr %22, null
  br i1 %23, label %25, label %24

24:                                               ; preds = %17
  store i64 0, ptr %2, align 8
  store i32 1, ptr %6, align 4
  br label %32

25:                                               ; preds = %17
  %26 = load ptr, ptr %5, align 8, !tbaa !4
  %27 = getelementptr inbounds i8, ptr %26, i64 1
  %28 = load ptr, ptr %3, align 8, !tbaa !4
  %29 = ptrtoint ptr %27 to i64
  %30 = ptrtoint ptr %28 to i64
  %31 = sub i64 %29, %30
  store i64 %31, ptr %2, align 8
  store i32 1, ptr %6, align 4
  br label %32

32:                                               ; preds = %25, %24, %15
  call void @llvm.lifetime.end.p0(i64 8, ptr %5) #11
  call void @llvm.lifetime.end.p0(i64 8, ptr %4) #11
  %33 = load i64, ptr %2, align 8
  ret i64 %33
}