; Function Attrs: inlinehint mustprogress nofree nounwind willreturn memory(argmem: read) uwtable
define internal fastcc i64 @hwloc_calc_parse_level_size(ptr noundef %0) unnamed_addr #16 {
  %2 = tail call i64 @strcspn(ptr noundef %0, ptr noundef nonnull @.str.127) #28
  %3 = getelementptr inbounds nuw i8, ptr %0, i64 %2
  %4 = load i8, ptr %3, align 1, !tbaa !11
  %.not = icmp eq i8 %4, 91
  br i1 %.not, label %5, label %12

5:                                                ; preds = %1
  %6 = tail call ptr @strchr(ptr noundef nonnull dereferenceable(1) %3, i32 noundef 93) #28
  %.not10 = icmp eq ptr %6, null
  br i1 %.not10, label %12, label %7

7:                                                ; preds = %5
  %8 = getelementptr inbounds nuw i8, ptr %6, i64 1
  %9 = ptrtoint ptr %8 to i64
  %10 = ptrtoint ptr %0 to i64
  %11 = sub i64 %9, %10
  br label %12

12:                                               ; preds = %5, %1, %7
  %.0 = phi i64 [ %11, %7 ], [ %2, %1 ], [ 0, %5 ]
  ret i64 %.0
}